; Function Attrs: nounwind sspstrong uwtable
define internal i64 @builtin_inline_class_181(ptr readnone captures(none) %0, i64 noundef %1) #2 {
  %3 = and i64 %1, 1
  %.not.i = icmp eq i64 %3, 0
  br i1 %.not.i, label %9, label %4

4:                                                ; preds = %2
  %5 = ashr i64 %1, 1
  %.lobit.i.i = ashr i64 %1, 63
  %spec.select.i.i = xor i64 %5, %.lobit.i.i
  %6 = tail call range(i64 0, 65) i64 @llvm.ctlz.i64(i64 %spec.select.i.i, i1 false)
  %7 = shl nuw nsw i64 %6, 1
  %8 = sub nuw nsw i64 129, %7
  br label %rb_int_bit_length.exit

9:                                                ; preds = %2
  %10 = icmp eq i64 %1, 0
  %11 = and i64 %1, 6
  %12 = icmp ne i64 %11, 0
  %13 = or i1 %10, %12
  br i1 %13, label %rb_int_bit_length.exit, label %rbimpl_RB_TYPE_P_fastpath.exit.i

rbimpl_RB_TYPE_P_fastpath.exit.i:                 ; preds = %9
  %14 = inttoptr i64 %1 to ptr
  %15 = load i64, ptr %14, align 8, !tbaa !11
  %16 = and i64 %15, 31
  %17 = icmp eq i64 %16, 10
  br i1 %17, label %18, label %rb_int_bit_length.exit

18:                                               ; preds = %rbimpl_RB_TYPE_P_fastpath.exit.i
  %19 = tail call i64 @rb_big_bit_length(i64 noundef %1) #26
  br label %rb_int_bit_length.exit

rb_int_bit_length.exit:                           ; preds = %4, %9, %rbimpl_RB_TYPE_P_fastpath.exit.i, %18
  %.0.i = phi i64 [ %8, %4 ], [ %19, %18 ], [ 4, %rbimpl_RB_TYPE_P_fastpath.exit.i ], [ 4, %9 ]
  ret i64 %.0.i
}